; Function Attrs: nounwind uwtable
define internal noundef i32 @H5O__drvinfo_reset(ptr noundef captures(none) %0) #0 {
  %2 = load i8, ptr @H5O_init_g, align 1, !tbaa !3, !range !7, !noundef !8
  %3 = trunc nuw i8 %2 to i1
  %4 = load i8, ptr @H5_libterm_g, align 1, !range !7
  %5 = trunc nuw i8 %4 to i1
  %6 = xor i1 %5, true
  %7 = select i1 %3, i1 true, i1 %6
  br i1 %7, label %8, label %12, !prof !9

8:                                                ; preds = %1
  %9 = getelementptr inbounds nuw i8, ptr %0, i64 272
  %10 = load ptr, ptr %9, align 8, !tbaa !25
  %11 = tail call ptr @H5MM_xfree(ptr noundef %10) #9
  store ptr %11, ptr %9, align 8, !tbaa !25
  br label %12

12:                                               ; preds = %8, %1
  ret i32 0
}